; Function Attrs: nofree norecurse nosync nounwind memory(read, inaccessiblemem: none) uwtable
define hidden range(i32 0, 2) i32 @ASN1_BIT_STRING_check(ptr noundef readonly captures(address_is_null) %0, ptr noundef readonly captures(none) %1, i32 noundef %2) local_unnamed_addr #8 {
  %.not = icmp eq ptr %0, null
  br i1 %.not, label %.loopexit, label %4

4:                                                ; preds = %3
  %5 = getelementptr inbounds nuw i8, ptr %0, i64 8
  %6 = load ptr, ptr %5, align 8, !tbaa !15
  %.not17 = icmp eq ptr %6, null
  br i1 %.not17, label %.loopexit, label %.preheader

.preheader:                                       ; preds = %4
  %7 = load i32, ptr %0, align 8, !tbaa !6
  %8 = icmp sgt i32 %7, 0
  br i1 %8, label %.lr.ph.preheader, label %.loopexit

.lr.ph.preheader:                                 ; preds = %.preheader
  %9 = sext i32 %2 to i64
  %10 = zext nneg i32 %7 to i64
  br label %.lr.ph

.lr.ph:                                           ; preds = %.lr.ph.preheader, %17
  %indvars.iv = phi i64 [ 0, %.lr.ph.preheader ], [ %indvars.iv.next, %17 ]
  %11 = icmp slt i64 %indvars.iv, %9
  br i1 %11, label %12, label %17

12:                                               ; preds = %.lr.ph
  %13 = getelementptr inbounds nuw i8, ptr %1, i64 %indvars.iv
  %14 = load i8, ptr %13, align 1, !tbaa !16
  %15 = xor i8 %14, -1
  %16 = zext i8 %15 to i32
  br label %17

17:                                               ; preds = %.lr.ph, %12
  %18 = phi i32 [ %16, %12 ], [ 255, %.lr.ph ]
  %19 = getelementptr inbounds nuw i8, ptr %6, i64 %indvars.iv
  %20 = load i8, ptr %19, align 1, !tbaa !16
  %21 = zext i8 %20 to i32
  %22 = and i32 %18, %21
  %23 = icmp eq i32 %22, 0
  %indvars.iv.next = add nuw nsw i64 %indvars.iv, 1
  %24 = icmp samesign ult i64 %indvars.iv.next, %10
  %25 = select i1 %24, i1 %23, i1 false
  br i1 %25, label %.lr.ph, label %.loopexit.loopexit, !llvm.loop !24

.loopexit.loopexit:                               ; preds = %17
  %26 = zext i1 %23 to i32
  br label %.loopexit

.loopexit:                                        ; preds = %.loopexit.loopexit, %.preheader, %3, %4
  %.0 = phi i32 [ 1, %4 ], [ 1, %3 ], [ 1, %.preheader ], [ %26, %.loopexit.loopexit ]
  ret i32 %.0
}